target datalayout = "e-m:e-p270:32:32-p271:32:32-p272:64:64-i64:64-i128:128-f80:128-n8:16:32:64-S128"
target triple = "x86_64-pc-linux-gnu"

%struct.AVFilterContext = type { ptr, ptr, ptr, ptr, ptr, i32, ptr, ptr, i32, ptr, ptr, i32, i32, ptr, ptr, ptr, ptr, i32, ptr, i32, i32 }
%struct.TestSourceContext = type { ptr, i32, i32, i32, i32, i32, %struct.AVRational, %struct.AVRational, i64, i64, %struct.AVRational, i32, i32, ptr, ptr, i32, i32, [4 x i8], i32, %struct.FFDrawContext, %struct.FFDrawColor, [4 x i8], [4 x i8], i32, i32, i32, i32, i32, i32, i32, i32, i32, i32, i32, i32, i32, i32, i32, i32, i32, i32, i32, ptr, ptr }
%struct.AVRational = type { i32, i32 }
%struct.FFDrawContext = type { ptr, i32, i32, [4 x i32], [4 x i8], [4 x i8], i8, i8, i32, i32, i32, [3 x [3 x double]] }
%struct.FFDrawColor = type { [4 x i8], [4 x %union.anon.2] }
%union.anon.2 = type { [4 x i32] }
%struct.AVFilterLink = type { ptr, ptr, ptr, ptr, i32, i32, i32, i32, %struct.AVRational, i32, i32, i32, %struct.AVChannelLayout, %struct.AVRational, ptr, i32, %struct.AVFilterFormatsConfig, %struct.AVFilterFormatsConfig }
%struct.AVChannelLayout = type { i32, i32, %union.anon.1, ptr }
%union.anon.1 = type { i64 }
%struct.AVFilterFormatsConfig = type { ptr, ptr, ptr, ptr, ptr }
%struct.AVFrame = type { [8 x ptr], [8 x i32], ptr, i32, i32, i32, i32, i32, %struct.AVRational, i64, i64, %struct.AVRational, i32, ptr, i32, i32, [8 x ptr], ptr, i32, ptr, i32, i32, i32, i32, i32, i32, i32, i64, ptr, i32, ptr, ptr, i64, i64, i64, i64, ptr, %struct.AVChannelLayout, i64 }

; Function Attrs: inlinehint nounwind uwtable
define internal void @ff_outlink_set_status(ptr noundef %0, i32 noundef %1, i64 noundef %2) #4 {
  %4 = alloca ptr, align 8
  %5 = alloca i32, align 4
  %6 = alloca i64, align 8
  store ptr %0, ptr %4, align 8, !tbaa !39
  store i32 %1, ptr %5, align 4, !tbaa !36
  store i64 %2, ptr %6, align 8, !tbaa !85
  %7 = load ptr, ptr %4, align 8, !tbaa !39
  %8 = load i32, ptr %5, align 4, !tbaa !36
  %9 = load i64, ptr %6, align 8, !tbaa !85
  call void @ff_avfilter_link_set_in_status(ptr noundef %7, i32 noundef %8, i64 noundef %9)
  ret void
}

; Function Attrs: nounwind uwtable
define internal i32 @activate(ptr noundef %0) #1 {
  %2 = alloca i32, align 4
  %3 = alloca ptr, align 8
  %4 = alloca ptr, align 8
  %5 = alloca ptr, align 8
  %6 = alloca ptr, align 8
  %7 = alloca i32, align 4
  %8 = alloca %struct.AVRational, align 4
  store ptr %0, ptr %3, align 8, !tbaa !4
  call void @llvm.lifetime.start.p0(i64 8, ptr %4) #15
  %9 = load ptr, ptr %3, align 8, !tbaa !4
  %10 = getelementptr inbounds nuw %struct.AVFilterContext, ptr %9, i32 0, i32 7
  %11 = load ptr, ptr %10, align 8, !tbaa !38
  %12 = getelementptr inbounds ptr, ptr %11, i64 0
  %13 = load ptr, ptr %12, align 8, !tbaa !39
  store ptr %13, ptr %4, align 8, !tbaa !39
  call void @llvm.lifetime.start.p0(i64 8, ptr %5) #15
  %14 = load ptr, ptr %3, align 8, !tbaa !4
  %15 = getelementptr inbounds nuw %struct.AVFilterContext, ptr %14, i32 0, i32 9
  %16 = load ptr, ptr %15, align 8, !tbaa !9
  store ptr %16, ptr %5, align 8, !tbaa !22
  call void @llvm.lifetime.start.p0(i64 8, ptr %6) #15
  %17 = load ptr, ptr %4, align 8, !tbaa !39
  %18 = call i32 @ff_outlink_frame_wanted(ptr noundef %17)
  %19 = icmp ne i32 %18, 0
  br i1 %19, label %21, label %20

20:                                               ; preds = %1
  store i32 -1497649742, ptr %2, align 4
  store i32 1, ptr %7, align 4
  br label %156

21:                                               ; preds = %1
  %22 = load ptr, ptr %5, align 8, !tbaa !22
  %23 = getelementptr inbounds nuw %struct.TestSourceContext, ptr %22, i32 0, i32 9
  %24 = load i64, ptr %23, align 8, !tbaa !41
  %25 = icmp sge i64 %24, 0
  br i1 %25, label %26, label %46

26:                                               ; preds = %21
  %27 = load ptr, ptr %5, align 8, !tbaa !22
  %28 = getelementptr inbounds nuw %struct.TestSourceContext, ptr %27, i32 0, i32 8
  %29 = load i64, ptr %28, align 8, !tbaa !42
  %30 = load ptr, ptr %5, align 8, !tbaa !22
  %31 = getelementptr inbounds nuw %struct.TestSourceContext, ptr %30, i32 0, i32 6
  %32 = getelementptr inbounds nuw %struct.AVRational, ptr %8, i32 0, i32 0
  store i32 1, ptr %32, align 4, !tbaa !43
  %33 = getelementptr inbounds nuw %struct.AVRational, ptr %8, i32 0, i32 1
  store i32 1000000, ptr %33, align 4, !tbaa !44
  %34 = load i64, ptr %31, align 4
  %35 = load i64, ptr %8, align 4
  %36 = call i64 @av_rescale_q(i64 noundef %29, i64 %34, i64 %35) #17
  %37 = load ptr, ptr %5, align 8, !tbaa !22
  %38 = getelementptr inbounds nuw %struct.TestSourceContext, ptr %37, i32 0, i32 9
  %39 = load i64, ptr %38, align 8, !tbaa !41
  %40 = icmp sge i64 %36, %39
  br i1 %40, label %41, label %46

41:                                               ; preds = %26
  %42 = load ptr, ptr %4, align 8, !tbaa !39
  %43 = load ptr, ptr %5, align 8, !tbaa !22
  %44 = getelementptr inbounds nuw %struct.TestSourceContext, ptr %43, i32 0, i32 8
  %45 = load i64, ptr %44, align 8, !tbaa !42
  call void @ff_outlink_set_status(ptr noundef %42, i32 noundef -541478725, i64 noundef %45)
  store i32 0, ptr %2, align 4
  store i32 1, ptr %7, align 4
  br label %156

46:                                               ; preds = %26, %21
  %47 = load ptr, ptr %5, align 8, !tbaa !22
  %48 = getelementptr inbounds nuw %struct.TestSourceContext, ptr %47, i32 0, i32 11
  %49 = load i32, ptr %48, align 8, !tbaa !32
  %50 = icmp ne i32 %49, 0
  br i1 %50, label %51, label %97

51:                                               ; preds = %46
  %52 = load ptr, ptr %5, align 8, !tbaa !22
  %53 = getelementptr inbounds nuw %struct.TestSourceContext, ptr %52, i32 0, i32 12
  %54 = load i32, ptr %53, align 4, !tbaa !37
  %55 = icmp ne i32 %54, 0
  br i1 %55, label %56, label %61

56:                                               ; preds = %51
  %57 = load ptr, ptr %5, align 8, !tbaa !22
  %58 = getelementptr inbounds nuw %struct.TestSourceContext, ptr %57, i32 0, i32 13
  call void @av_frame_free(ptr noundef %58)
  %59 = load ptr, ptr %5, align 8, !tbaa !22
  %60 = getelementptr inbounds nuw %struct.TestSourceContext, ptr %59, i32 0, i32 12
  store i32 0, ptr %60, align 4, !tbaa !37
  br label %61

61:                                               ; preds = %56, %51
  %62 = load ptr, ptr %5, align 8, !tbaa !22
  %63 = getelementptr inbounds nuw %struct.TestSourceContext, ptr %62, i32 0, i32 13
  %64 = load ptr, ptr %63, align 8, !tbaa !45
  %65 = icmp ne ptr %64, null
  br i1 %65, label %92, label %66

66:                                               ; preds = %61
  %67 = load ptr, ptr %4, align 8, !tbaa !39
  %68 = load ptr, ptr %5, align 8, !tbaa !22
  %69 = getelementptr inbounds nuw %struct.TestSourceContext, ptr %68, i32 0, i32 1
  %70 = load i32, ptr %69, align 8, !tbaa !46
  %71 = load ptr, ptr %5, align 8, !tbaa !22
  %72 = getelementptr inbounds nuw %struct.TestSourceContext, ptr %71, i32 0, i32 2
  %73 = load i32, ptr %72, align 4, !tbaa !47
  %74 = call ptr @ff_get_video_buffer(ptr noundef %67, i32 noundef %70, i32 noundef %73)
  %75 = load ptr, ptr %5, align 8, !tbaa !22
  %76 = getelementptr inbounds nuw %struct.TestSourceContext, ptr %75, i32 0, i32 13
  store ptr %74, ptr %76, align 8, !tbaa !45
  %77 = load ptr, ptr %5, align 8, !tbaa !22
  %78 = getelementptr inbounds nuw %struct.TestSourceContext, ptr %77, i32 0, i32 13
  %79 = load ptr, ptr %78, align 8, !tbaa !45
  %80 = icmp ne ptr %79, null
  br i1 %80, label %82, label %81

81:                                               ; preds = %66
  store i32 -12, ptr %2, align 4
  store i32 1, ptr %7, align 4
  br label %156

82:                                               ; preds = %66
  %83 = load ptr, ptr %5, align 8, !tbaa !22
  %84 = getelementptr inbounds nuw %struct.TestSourceContext, ptr %83, i32 0, i32 14
  %85 = load ptr, ptr %84, align 8, !tbaa !24
  %86 = load ptr, ptr %4, align 8, !tbaa !39
  %87 = getelementptr inbounds nuw %struct.AVFilterLink, ptr %86, i32 0, i32 0
  %88 = load ptr, ptr %87, align 8, !tbaa !48
  %89 = load ptr, ptr %5, align 8, !tbaa !22
  %90 = getelementptr inbounds nuw %struct.TestSourceContext, ptr %89, i32 0, i32 13
  %91 = load ptr, ptr %90, align 8, !tbaa !45
  call void %85(ptr noundef %88, ptr noundef %91)
  br label %92

92:                                               ; preds = %82, %61
  %93 = load ptr, ptr %5, align 8, !tbaa !22
  %94 = getelementptr inbounds nuw %struct.TestSourceContext, ptr %93, i32 0, i32 13
  %95 = load ptr, ptr %94, align 8, !tbaa !45
  %96 = call ptr @av_frame_clone(ptr noundef %95)
  store ptr %96, ptr %6, align 8, !tbaa !55
  br label %106

97:                                               ; preds = %46
  %98 = load ptr, ptr %4, align 8, !tbaa !39
  %99 = load ptr, ptr %5, align 8, !tbaa !22
  %100 = getelementptr inbounds nuw %struct.TestSourceContext, ptr %99, i32 0, i32 1
  %101 = load i32, ptr %100, align 8, !tbaa !46
  %102 = load ptr, ptr %5, align 8, !tbaa !22
  %103 = getelementptr inbounds nuw %struct.TestSourceContext, ptr %102, i32 0, i32 2
  %104 = load i32, ptr %103, align 4, !tbaa !47
  %105 = call ptr @ff_get_video_buffer(ptr noundef %98, i32 noundef %101, i32 noundef %104)
  store ptr %105, ptr %6, align 8, !tbaa !55
  br label %106

106:                                              ; preds = %97, %92
  %107 = load ptr, ptr %6, align 8, !tbaa !55
  %108 = icmp ne ptr %107, null
  br i1 %108, label %110, label %109

109:                                              ; preds = %106
  store i32 -12, ptr %2, align 4
  store i32 1, ptr %7, align 4
  br label %156

110:                                              ; preds = %106
  %111 = load ptr, ptr %5, align 8, !tbaa !22
  %112 = getelementptr inbounds nuw %struct.TestSourceContext, ptr %111, i32 0, i32 8
  %113 = load i64, ptr %112, align 8, !tbaa !42
  %114 = load ptr, ptr %6, align 8, !tbaa !55
  %115 = getelementptr inbounds nuw %struct.AVFrame, ptr %114, i32 0, i32 9
  store i64 %113, ptr %115, align 8, !tbaa !56
  %116 = load ptr, ptr %6, align 8, !tbaa !55
  %117 = getelementptr inbounds nuw %struct.AVFrame, ptr %116, i32 0, i32 38
  store i64 1, ptr %117, align 8, !tbaa !61
  %118 = load ptr, ptr %6, align 8, !tbaa !55
  %119 = getelementptr inbounds nuw %struct.AVFrame, ptr %118, i32 0, i32 21
  %120 = load i32, ptr %119, align 4, !tbaa !62
  %121 = or i32 %120, 2
  store i32 %121, ptr %119, align 4, !tbaa !62
  %122 = load ptr, ptr %6, align 8, !tbaa !55
  %123 = getelementptr inbounds nuw %struct.AVFrame, ptr %122, i32 0, i32 21
  %124 = load i32, ptr %123, align 4, !tbaa !62
  %125 = and i32 %124, -9
  store i32 %125, ptr %123, align 4, !tbaa !62
  %126 = load ptr, ptr %6, align 8, !tbaa !55
  %127 = getelementptr inbounds nuw %struct.AVFrame, ptr %126, i32 0, i32 7
  store i32 1, ptr %127, align 8, !tbaa !63
  %128 = load ptr, ptr %6, align 8, !tbaa !55
  %129 = getelementptr inbounds nuw %struct.AVFrame, ptr %128, i32 0, i32 8
  %130 = load ptr, ptr %5, align 8, !tbaa !22
  %131 = getelementptr inbounds nuw %struct.TestSourceContext, ptr %130, i32 0, i32 10
  call void @llvm.memcpy.p0.p0.i64(ptr align 4 %129, ptr align 8 %131, i64 8, i1 false), !tbaa.struct !64
  %132 = load ptr, ptr %5, align 8, !tbaa !22
  %133 = getelementptr inbounds nuw %struct.TestSourceContext, ptr %132, i32 0, i32 11
  %134 = load i32, ptr %133, align 8, !tbaa !32
  %135 = icmp ne i32 %134, 0
  br i1 %135, label %144, label %136

136:                                              ; preds = %110
  %137 = load ptr, ptr %5, align 8, !tbaa !22
  %138 = getelementptr inbounds nuw %struct.TestSourceContext, ptr %137, i32 0, i32 14
  %139 = load ptr, ptr %138, align 8, !tbaa !24
  %140 = load ptr, ptr %4, align 8, !tbaa !39
  %141 = getelementptr inbounds nuw %struct.AVFilterLink, ptr %140, i32 0, i32 0
  %142 = load ptr, ptr %141, align 8, !tbaa !48
  %143 = load ptr, ptr %6, align 8, !tbaa !55
  call void %139(ptr noundef %142, ptr noundef %143)
  br label %144

144:                                              ; preds = %136, %110
  %145 = load ptr, ptr %5, align 8, !tbaa !22
  %146 = getelementptr inbounds nuw %struct.TestSourceContext, ptr %145, i32 0, i32 8
  %147 = load i64, ptr %146, align 8, !tbaa !42
  %148 = add nsw i64 %147, 1
  store i64 %148, ptr %146, align 8, !tbaa !42
  %149 = load ptr, ptr %5, align 8, !tbaa !22
  %150 = getelementptr inbounds nuw %struct.TestSourceContext, ptr %149, i32 0, i32 5
  %151 = load i32, ptr %150, align 8, !tbaa !65
  %152 = add i32 %151, 1
  store i32 %152, ptr %150, align 8, !tbaa !65
  %153 = load ptr, ptr %4, align 8, !tbaa !39
  %154 = load ptr, ptr %6, align 8, !tbaa !55
  %155 = call i32 @ff_filter_frame(ptr noundef %153, ptr noundef %154)
  store i32 %155, ptr %2, align 4
  store i32 1, ptr %7, align 4
  br label %156

156:                                              ; preds = %144, %109, %81, %41, %20
  call void @llvm.lifetime.end.p0(i64 8, ptr %6) #15
  call void @llvm.lifetime.end.p0(i64 8, ptr %5) #15
  call void @llvm.lifetime.end.p0(i64 8, ptr %4) #15
  %157 = load i32, ptr %2, align 4
  ret i32 %157
}