; Function Attrs: nounwind uwtable
define internal i32 @activate(ptr noundef readonly captures(none) %0) #1 {
  %2 = getelementptr inbounds nuw i8, ptr %0, i64 56
  %3 = load ptr, ptr %2, align 8, !tbaa !30
  %4 = load ptr, ptr %3, align 8, !tbaa !31
  %5 = getelementptr inbounds nuw i8, ptr %0, i64 72
  %6 = load ptr, ptr %5, align 8, !tbaa !4
  %7 = tail call i32 @ff_outlink_frame_wanted(ptr noundef %4) #20
  %.not = icmp eq i32 %7, 0
  br i1 %.not, label %75, label %8

8:                                                ; preds = %1
  %9 = getelementptr inbounds nuw i8, ptr %6, i64 56
  %10 = load i64, ptr %9, align 8, !tbaa !33
  %11 = icmp sgt i64 %10, -1
  br i1 %11, label %12, label %19

12:                                               ; preds = %8
  %13 = getelementptr inbounds nuw i8, ptr %6, i64 48
  %14 = load i64, ptr %13, align 8, !tbaa !34
  %15 = getelementptr inbounds nuw i8, ptr %6, i64 28
  %16 = load i64, ptr %15, align 4
  %17 = tail call i64 @av_rescale_q(i64 noundef %14, i64 %16, i64 4294967296000001) #21
  %.not46 = icmp slt i64 %17, %10
  br i1 %.not46, label %19, label %18

18:                                               ; preds = %12
  tail call void @ff_avfilter_link_set_in_status(ptr noundef %4, i32 noundef -541478725, i64 noundef %14) #20
  br label %75

19:                                               ; preds = %12, %8
  %20 = getelementptr inbounds nuw i8, ptr %6, i64 72
  %21 = load i32, ptr %20, align 8, !tbaa !28
  %.not47 = icmp eq i32 %21, 0
  br i1 %.not47, label %43, label %22

22:                                               ; preds = %19
  %23 = getelementptr inbounds nuw i8, ptr %6, i64 76
  %24 = load i32, ptr %23, align 4, !tbaa !29
  %.not48 = icmp eq i32 %24, 0
  br i1 %.not48, label %27, label %25

25:                                               ; preds = %22
  %26 = getelementptr inbounds nuw i8, ptr %6, i64 80
  tail call void @av_frame_free(ptr noundef nonnull %26) #20
  store i32 0, ptr %23, align 4, !tbaa !29
  br label %27

27:                                               ; preds = %25, %22
  %28 = getelementptr inbounds nuw i8, ptr %6, i64 80
  %29 = load ptr, ptr %28, align 8, !tbaa !35
  %.not49 = icmp eq ptr %29, null
  br i1 %.not49, label %30, label %40

30:                                               ; preds = %27
  %31 = getelementptr inbounds nuw i8, ptr %6, i64 8
  %32 = load i32, ptr %31, align 8, !tbaa !36
  %33 = getelementptr inbounds nuw i8, ptr %6, i64 12
  %34 = load i32, ptr %33, align 4, !tbaa !37
  %35 = tail call ptr @ff_get_video_buffer(ptr noundef %4, i32 noundef %32, i32 noundef %34) #20
  store ptr %35, ptr %28, align 8, !tbaa !35
  %.not50 = icmp eq ptr %35, null
  br i1 %.not50, label %75, label %36

36:                                               ; preds = %30
  %37 = getelementptr inbounds nuw i8, ptr %6, i64 88
  %38 = load ptr, ptr %37, align 8, !tbaa !20
  %39 = load ptr, ptr %4, align 8, !tbaa !38
  tail call void %38(ptr noundef %39, ptr noundef nonnull %35) #20
  %.pre = load ptr, ptr %28, align 8, !tbaa !35
  br label %40

40:                                               ; preds = %36, %27
  %41 = phi ptr [ %.pre, %36 ], [ %29, %27 ]
  %42 = tail call ptr @av_frame_clone(ptr noundef %41) #20
  br label %49

43:                                               ; preds = %19
  %44 = getelementptr inbounds nuw i8, ptr %6, i64 8
  %45 = load i32, ptr %44, align 8, !tbaa !36
  %46 = getelementptr inbounds nuw i8, ptr %6, i64 12
  %47 = load i32, ptr %46, align 4, !tbaa !37
  %48 = tail call ptr @ff_get_video_buffer(ptr noundef %4, i32 noundef %45, i32 noundef %47) #20
  br label %49

49:                                               ; preds = %43, %40
  %.043 = phi ptr [ %42, %40 ], [ %48, %43 ]
  %.not51 = icmp eq ptr %.043, null
  br i1 %.not51, label %75, label %50

50:                                               ; preds = %49
  %51 = getelementptr inbounds nuw i8, ptr %6, i64 48
  %52 = load i64, ptr %51, align 8, !tbaa !34
  %53 = getelementptr inbounds nuw i8, ptr %.043, i64 136
  store i64 %52, ptr %53, align 8, !tbaa !46
  %54 = getelementptr inbounds nuw i8, ptr %.043, i64 408
  store i64 1, ptr %54, align 8, !tbaa !51
  %55 = getelementptr inbounds nuw i8, ptr %.043, i64 276
  %56 = load i32, ptr %55, align 4, !tbaa !52
  %57 = and i32 %56, -11
  %58 = or disjoint i32 %57, 2
  store i32 %58, ptr %55, align 4, !tbaa !52
  %59 = getelementptr inbounds nuw i8, ptr %.043, i64 120
  store i32 1, ptr %59, align 8, !tbaa !53
  %60 = getelementptr inbounds nuw i8, ptr %.043, i64 124
  %61 = getelementptr inbounds nuw i8, ptr %6, i64 64
  %62 = load i64, ptr %61, align 8
  store i64 %62, ptr %60, align 4
  %63 = load i32, ptr %20, align 8, !tbaa !28
  %.not52 = icmp eq i32 %63, 0
  br i1 %.not52, label %64, label %68

64:                                               ; preds = %50
  %65 = getelementptr inbounds nuw i8, ptr %6, i64 88
  %66 = load ptr, ptr %65, align 8, !tbaa !20
  %67 = load ptr, ptr %4, align 8, !tbaa !38
  tail call void %66(ptr noundef %67, ptr noundef nonnull %.043) #20
  br label %68

68:                                               ; preds = %64, %50
  %69 = load i64, ptr %51, align 8, !tbaa !34
  %70 = add nsw i64 %69, 1
  store i64 %70, ptr %51, align 8, !tbaa !34
  %71 = getelementptr inbounds nuw i8, ptr %6, i64 24
  %72 = load i32, ptr %71, align 8, !tbaa !54
  %73 = add i32 %72, 1
  store i32 %73, ptr %71, align 8, !tbaa !54
  %74 = tail call i32 @ff_filter_frame(ptr noundef %4, ptr noundef nonnull %.043) #20
  br label %75

75:                                               ; preds = %49, %30, %1, %68, %18
  %.0 = phi i32 [ 0, %18 ], [ %74, %68 ], [ -1497649742, %1 ], [ -12, %30 ], [ -12, %49 ]
  ret i32 %.0
}